; Function Attrs: mustprogress nounwind uwtable
define hidden void @_ZN4llvh6detail9IEEEFloat9makeQuietEv(ptr noundef nonnull align 8 dereferenceable(24) %this) local_unnamed_addr #2 align 2 {
entry:
  %0 = load ptr, ptr %this, align 8
  %precision.i.i = getelementptr inbounds nuw i8, ptr %0, i64 4
  %1 = load i32, ptr %precision.i.i, align 4
  %2 = add i32 %1, -64
  %cmp.i = icmp ult i32 %2, -128
  %significand.i = getelementptr inbounds nuw i8, ptr %this, i64 8
  %3 = load ptr, ptr %significand.i, align 8
  %retval.0.i = select i1 %cmp.i, ptr %3, ptr %significand.i
  %sub = add i32 %1, -2
  tail call void @_ZN4llvh5APInt8tcSetBitEPmj(ptr noundef %retval.0.i, i32 noundef %sub) #26
  ret void
}